EXPORTS
    ??0AbstractRange@@QAE@II@Z
    ??0AliasedInstruction@@QAE@XZ
    ??0AttributeStimulus@@QAE@PBD@Z
    ??0Bit@@QAE@AAVRegisterValue@@I@Z
    ??0BoolEventLogger@@QAE@I@Z
    ??0Boolean@@QAE@PBD_N0@Z
    ??0Boolean@@QAE@_N@Z
    ??0Breakpoint_Instruction@@QAE@PAVProcessor@@II@Z
    ??0ByteLogger@gpsim@@QAE@H@Z
    ??0CommandAssertion@@QAE@PAVProcessor@@IIPBD_N@Z
    ??0Error@@QAE@V?$basic_string@DU?$char_traits@D@std@@V?$allocator@D@2@@std@@@Z
    ??0Float@@QAE@N@Z
    ??0Float@@QAE@PBDN0@Z
    ??0I2C_EE@@QAE@PAVProcessor@@IIIIII@Z
    ??0IIndexedCollection@@QAE@H@Z
    ??0IIndexedCollection@@QAE@PBD0H@Z
    ??0IOPIN@@QAE@PBDNNNN@Z
    ??0IO_bi_directional@@QAE@PBDNNNNNN@Z
    ??0IO_bi_directional_pu@@QAE@PBDNNNNNNN@Z
    ??0IO_open_collector@@QAE@PBD@Z
    ??0IndexedSymbol@@QAE@PAVgpsimObject@@PAV?$list@PAVExpression@@V?$allocator@PAVExpression@@@std@@@std@@@Z
    ??0Integer@@QAE@ABV0@@Z
    ??0Integer@@QAE@PBD_J0@Z
    ??0Integer@@QAE@_J@Z
    ??0IntelHexProgramFileType@@QAE@XZ
    ??0Interface@@QAE@PAX@Z
    ??0LiteralArray@@QAE@PAV?$list@PAVExpression@@V?$allocator@PAVExpression@@@std@@@std@@@Z
    ??0LiteralBoolean@@QAE@PAVBoolean@@@Z
    ??0LiteralFloat@@QAE@PAVFloat@@@Z
    ??0LiteralInteger@@QAE@PAVInteger@@@Z
    ??0LiteralString@@QAE@PAVString@@@Z
    ??0LiteralSymbol@@QAE@PAVgpsimObject@@@Z
    ??0Module@@QAE@PBD0@Z
    ??0ModuleTraceType@@QAE@PAVModule@@IPBD@Z
    ??0OpAbstractRange@@QAE@PAVExpression@@0@Z
    ??0OpAdd@@QAE@PAVExpression@@0@Z
    ??0OpAddressOf@@QAE@PAVExpression@@@Z
    ??0OpAnd@@QAE@PAVExpression@@0@Z
    ??0OpDiv@@QAE@PAVExpression@@0@Z
    ??0OpEq@@QAE@PAVExpression@@0@Z
    ??0OpGe@@QAE@PAVExpression@@0@Z
    ??0OpGt@@QAE@PAVExpression@@0@Z
    ??0OpIndirect@@QAE@PAVExpression@@@Z
    ??0OpLe@@QAE@PAVExpression@@0@Z
    ??0OpLogicalAnd@@QAE@PAVExpression@@0@Z
    ??0OpLogicalNot@@QAE@PAVExpression@@@Z
    ??0OpLogicalOr@@QAE@PAVExpression@@0@Z
    ??0OpLt@@QAE@PAVExpression@@0@Z
    ??0OpMpy@@QAE@PAVExpression@@0@Z
    ??0OpNe@@QAE@PAVExpression@@0@Z
    ??0OpNegate@@QAE@PAVExpression@@@Z
    ??0OpOnescomp@@QAE@PAVExpression@@@Z
    ??0OpOr@@QAE@PAVExpression@@0@Z
    ??0OpPlus@@QAE@PAVExpression@@@Z
    ??0OpShl@@QAE@PAVExpression@@0@Z
    ??0OpShr@@QAE@PAVExpression@@0@Z
    ??0OpSub@@QAE@PAVExpression@@0@Z
    ??0OpXor@@QAE@PAVExpression@@0@Z
    ??0PCTraceObject@@QAE@PAVProcessor@@I@Z
    ??0PCTraceType@@QAE@PAVProcessor@@I@Z
    ??0Package@@QAE@I@Z
    ??0Packet@@QAE@II@Z
    ??0PicLatchRegister@@QAE@PAVProcessor@@PBD1PAVPortRegister@@I@Z
    ??0PicPortRegister@@QAE@PAVProcessor@@PBD1II@Z
    ??0PicTrisRegister@@QAE@PAVProcessor@@PBD1PAVPicPortRegister@@_NI@Z
    ??0PinModule@@QAE@PAVPortModule@@IPAVIOPIN@@@Z
    ??0Processor@@QAE@PBD0@Z
    ??0ProcessorConstructor@@QAE@P6APAVProcessor@@PBD@Z0000@Z
    ??0ProgramFileBuf@@QAE@PAU_iobuf@@@Z
    ??0ProgramMemoryAccess@@QAE@PAVProcessor@@@Z
    ??0PromAddress@@QAE@PAVI2C_EE@@PBD1@Z
    ??0RegisterAssertion@@QAE@PAVProcessor@@IIIIII_N@Z
    ??0RegisterAssertion@@QAE@PAVProcessor@@IIIII_N@Z
    ??0RegisterCollection@@QAE@PAVProcessor@@PBDPAPAVRegister@@I@Z
    ??0RegisterExpression@@QAE@I@Z
    ??0RegisterReadTraceObject@@QAE@PAVProcessor@@PAVRegister@@VRegisterValue@@@Z
    ??0RegisterReadTraceType@@QAE@PAVProcessor@@I@Z
    ??0RegisterWriteTraceObject@@QAE@PAVProcessor@@PAVRegister@@VRegisterValue@@@Z
    ??0RegisterWriteTraceType@@QAE@PAVProcessor@@I@Z
    ??0Stimulus_Node@@QAE@PBD@Z
    ??0String@@QAE@PBD00@Z
    ??0String@@QAE@PBD@Z
    ??0ThreeStateEventLogger@@QAE@I@Z
    ??0Token@gpsim@@QAE@XZ
    ??0TraceFrame@@QAE@XZ
    ??0TriggerObject@@QAE@XZ
    ??0TypeMismatch@@QAE@V?$basic_string@DU?$char_traits@D@std@@V?$allocator@D@2@@std@@00@Z
    ??0Value@@QAE@PBD0PAVModule@@@Z
    ??0Value@@QAE@XZ
    ??0ValueStimulus@@QAE@PBD@Z
    ??0gpsimObject@@QAE@XZ
    ??0instruction@@QAE@PAVProcessor@@II@Z
    ??0invalid_instruction@@QAE@PAVProcessor@@II@Z
    ??0sfr_register@@QAE@PAVModule@@PBD1@Z
    ??1AnError@@UAE@XZ
    ??1Boolean@@UAE@XZ
    ??1Error@@UAE@XZ
    ??1Float@@UAE@XZ
    ??1IOPIN@@UAE@XZ
    ??1IO_bi_directional_pu@@UAE@XZ
    ??1IndexedSymbol@@UAE@XZ
    ??1Integer@@UAE@XZ
    ??1Module@@UAE@XZ
    ??1OpNe@@UAE@XZ
    ??1PinMonitor@@UAE@XZ
    ??1PortModule@@UAE@XZ
    ??1Processor@@UAE@XZ
    ??1Register@@UAE@XZ
    ??1String@@UAE@XZ
    ??1TraceFrame@@UAE@XZ
    ??1TriggerObject@@UAE@XZ
    ??1Value@@UAE@XZ
    ??1gpsimObject@@UAE@XZ
    ??1stimulus@@UAE@XZ
    ??AFileContextList@@QAEPAVFileContext@@H@Z
    ??APortModule@@QAEAAVPinModule@@I@Z
    ??ARegisterMemoryAccess@@QAEAAVRegister@@I@Z
    ?AddModulePathFromFilePath@@YAXAAV?$basic_string@DU?$char_traits@D@std@@V?$allocator@D@2@@std@@@Z
    ?Clear@CSimulationContext@@QAEXXZ
    ?ConstructInvalidInstruction@Processor@@UAEPAVinstruction@@PAV1@II@Z
    ?Debug@Processor@@UAEXXZ
    ?DecodeHeader@Packet@@QAE_NXZ
    ?DecodeObjectType@Packet@@QAE_NAAI@Z
    ?DecodeString@Packet@@QAE_NPADH@Z
    ?DecodeUInt32@Packet@@QAE_NAAI@Z
    ?DecodeUInt64@Packet@@QAE_NAA_K@Z
    ?DisplayError@ProgramFileType@@UAEXHPBD0@Z
    ?DisplayString@ProcessorConstructorList@@SA?AV?$basic_string@DU?$char_traits@D@std@@V?$allocator@D@2@@std@@XZ
    ?ElementIndexedName@IIndexedCollection@@MAE?AV?$basic_string@DU?$char_traits@D@std@@V?$allocator@D@2@@std@@I@Z
    ?EncodeHeader@Packet@@QAE_NXZ
    ?EncodeObjectType@Packet@@QAE_NI@Z
    ?EncodeUInt32@Packet@@QAE_NI@Z
    ?EncodeUInt64@Packet@@QAE_N_K@Z
    ?Execute@CCommandManager@@QAEHAAV?$basic_string@DU?$char_traits@D@std@@V?$allocator@D@2@@std@@PBD@Z
    ?Find@FileContextList@@QAEHAAV?$basic_string@DU?$char_traits@D@std@@V?$allocator@D@2@@std@@@Z
    ?ForEachModule@SymbolTable@@QAEXP6AXABU?$pair@V?$basic_string@DU?$char_traits@D@std@@V?$allocator@D@2@@std@@PAVSymbolTable_t@@@std@@@Z@Z
    ?GUIname@IOPIN@@UBEAAV?$basic_string@DU?$char_traits@D@std@@V?$allocator@D@2@@std@@XZ
    ?GetActiveCPU@CSimulationContext@@QAEPAVProcessor@@XZ
    ?GetBreakpoints@CSimulationContext@@QAEAAVBreakpoints@@XZ
    ?GetCapabilities@Processor@@QAEKXZ
    ?GetContext@CSimulationContext@@SAPAV1@XZ
    ?GetList@ProcessorConstructorList@@SAPAV1@XZ
    ?GetManager@CCommandManager@@SAAAV1@XZ
    ?GetSymbol@LiteralSymbol@@QAEPAVValue@@XZ
    ?Initialize@CSimulationContext@@QAEXXZ
    ?Initialize@Token@gpsim@@QAEXP6APAXPAX@Z0@Z
    ?InstantiateObject@ModuleLibrary@@SAHAAV?$basic_string@DU?$char_traits@D@std@@V?$allocator@D@2@@std@@0@Z
    ?ListLoadableModules@ModuleLibrary@@SAXXZ
    ?ListToConsole@CCommandManager@@QAEXXZ
    ?LoadFile@ModuleLibrary@@SAHAAV?$basic_string@DU?$char_traits@D@std@@V?$allocator@D@2@@std@@@Z
    ?LoadProgramFile@IntelHexProgramFileType@@UAEHPAPAVProcessor@@PBDPAU_iobuf@@1@Z
    ?LoadProgram@CSimulationContext@@QAEHPBD0PAPAVProcessor@@0@Z
    ?ModuleLibraries@@3V?$map@V?$basic_string@DU?$char_traits@D@std@@V?$allocator@D@2@@std@@PAVDynamicModuleLibraryInfo@@U?$less@V?$basic_string@DU?$char_traits@D@std@@V?$allocator@D@2@@std@@@2@V?$allocator@U?$pair@$$CBV?$basic_string@DU?$char_traits@D@std@@V?$allocator@D@2@@std@@PAVDynamicModuleLibraryInfo@@@std@@@2@@std@@A
    ?NewObject@Float@@SAPAV1@PBD00@Z
    ?NewObject@Integer@@SAPAV1@PBD00@Z
    ?NotifyUserCanceled@CSimulationContext@@QAEXXZ
    ?Parse@Boolean@@SA_NPBDAA_N@Z
    ?Parse@Float@@SA_NPBDAAN@Z
    ?Parse@Integer@@SA_NPBDAA_J@Z
    ?PushValue@IIndexedCollection@@IAEXHHPAVValue@@AAV?$vector@V?$basic_string@DU?$char_traits@D@std@@V?$allocator@D@2@@std@@V?$allocator@V?$basic_string@DU?$char_traits@D@std@@V?$allocator@D@2@@std@@@2@@std@@1@Z
    ?ReadHLLLine@instruction@@UAEPADPADH@Z
    ?ReadLine@FileContextList@@QAEPADHHPADH@Z
    ?ReadLstLine@instruction@@UAEPADPADH@Z
    ?ReadSrcLine@instruction@@UAEPADPADH@Z
    ?Register@CCommandManager@@QAEHPAVICommandHandler@@@Z
    ?RegisterProgramFileType@@YAXPAVProgramFileType@@@Z
    ?Reset@CSimulationContext@@QAEXW4RESET_TYPE@@@Z
    ?Set@IIndexedCollection@@UAEXPAVValue@@@Z
    ?SetAddressRadix@IIndexedCollection@@QAEXH@Z
    ?SetAt@IIndexedCollection@@UAEXPAV?$list@PAVExpression@@V?$allocator@PAVExpression@@@std@@@std@@PAVExpression@@@Z
    ?SetAt@IIndexedCollection@@UAEXPAV?$list@PAVExpression@@V?$allocator@PAVExpression@@@std@@@std@@PAVExpression@@@Z
    ?SetDefaultProcessor@CSimulationContext@@QAE_NPBD0@Z
    ?SetProcessorByType@CSimulationContext@@QAEPAVProcessor@@PBD0@Z
    ?SetSourcePath@FileContextList@@QAEXPBD@Z
    ?TrimWhiteSpaceFromString@@YAPADPAD@Z
    ?add@TraceFrame@@UAEXPAVTraceObject@@@Z
    ?addFrame@Trace@@QAEXPAVTraceFrame@@@Z
    ?addPin@PortModule@@QAEPAVIOPIN@@PAV2@I@Z
    ?addPinModule@PortModule@@QAEXPAVPinModule@@I@Z
    ?addSink@PinMonitor@@QAEXPAVSignalSink@@@Z
    ?addSymbol@Module@@QAEHPAVgpsimObject@@PAV?$basic_string@DU?$char_traits@D@std@@V?$allocator@D@2@@std@@@Z
    ?addSymbol@SymbolTable@@QAEHPAVgpsimObject@@@Z
    ?addToCurrentFrame@Trace@@QAEXPAVTraceObject@@@Z
    ?add_command@Module@@QAEXAAV?$basic_string@DU?$char_traits@D@std@@V?$allocator@D@2@@std@@0@Z
    ?add_interface@gpsimInterface@@QAEIPAVInterface@@@Z
    ?add_processor@CSimulationContext@@QAEPAVProcessor@@PAV2@@Z
    ?add_processor@CSimulationContext@@QAEPAVProcessor@@PBD0@Z
    ?add_xref@AliasedInstruction@@UAEXPAX@Z
    ?add_xref@Value@@UAEXPAX@Z
    ?address_has_break@ProgramMemoryAccess@@UAEHIW4INSTRUCTION_TYPES@instruction@@@Z
    ?address_has_notify@ProgramMemoryAccess@@UAEHI@Z
    ?address_has_profile_start@ProgramMemoryAccess@@UAEHI@Z
    ?address_has_profile_stop@ProgramMemoryAccess@@UAEHI@Z
    ?advance_simulation@gpsimInterface@@QAEXW4eAdvancementModes@1@@Z
    ?advanceIndex@PacketBuffer@@QAEXI@Z
    ?allocateTraceType@Trace@@QAEIPAVTraceType@@@Z
    ?assertValid@Integer@@SAPAV1@PAVValue@@V?$basic_string@DU?$char_traits@D@std@@V?$allocator@D@2@@std@@_J2@Z
    ?assertValid@Integer@@SAPAV1@PAVValue@@V?$basic_string@DU?$char_traits@D@std@@V?$allocator@D@2@@std@@_J@Z
    ?assign_pin@Module@@UAEXIPAVIOPIN@@@Z
    ?assign_pin@Package@@QAEXIPAVIOPIN@@_N@Z
    ?assign_xref@ProgramMemoryAccess@@QAEXIPAX@Z
    ?attach@IOPIN@@UAEXPAVStimulus_Node@@@Z
    ?attach_src_line@Processor@@QAEXIIII@Z
    ?attach_stimulus@Stimulus_Node@@QAEXPAVstimulus@@@Z
    ?bIsValid@Breakpoints@@QAE_NI@Z
    ?bSimulating@gpsimInterface@@QAE_NXZ
    ?bUsingGUI@gpsimInterface@@QAE_NXZ
    ?bp@@3VBreakpoints@@A
    ?breakpoint@Cycle_Counter@@AAEXXZ
    ?byte@ByteLogger@gpsim@@QAEXI@Z
    ?callback@ProgramMemoryAccess@@UAEXXZ
    ?callback@RealTimeBreakPoint@@UAEXXZ
    ?callback@TriggerObject@@UAEXXZ
    ?callback@source_stimulus@@UAEXXZ
    ?callback_print@TriggerObject@@UAEXXZ
    ?callback_print@source_stimulus@@UAEXXZ
    ?clear@Breakpoint_Instruction@@UAEXXZ
    ?clear@Breakpoints@@QAEXI@Z
    ?clear@TriggerObject@@UAEXXZ
    ?clear_all@Breakpoints@@QAEXPAVProcessor@@@Z
    ?clear_all_register@Breakpoints@@QAEXPAVProcessor@@I@Z
    ?clear_break@Cycle_Counter@@QAEXPAVTriggerObject@@@Z
    ?clear_break@Register@@UAEHXZ
    ?clear_break@gpsimObject@@UAEHXZ
    ?clear_break_at_address@ProgramMemoryAccess@@UAEHIPAVinstruction@@@Z
    ?clear_break_at_address@ProgramMemoryAccess@@UAEHIW4INSTRUCTION_TYPES@instruction@@@Z
    ?clear_break_at_line@ProgramMemoryAccess@@UAEXII@Z
    ?clear_notify_at_address@ProgramMemoryAccess@@UAEHI@Z
    ?clear_profile_start_at_address@ProgramMemoryAccess@@UAEHI@Z
    ?clear_profile_stop_at_address@ProgramMemoryAccess@@UAEHI@Z
    ?clear_trigger@TriggerObject@@UAEXXZ
    ?compare@Boolean@@UAE_NPAVComparisonOperator@@PAVValue@@@Z
    ?compare@Float@@UAE_NPAVComparisonOperator@@PAVValue@@@Z
    ?compare@Integer@@UAE_NPAVComparisonOperator@@PAVValue@@@Z
    ?compare@Value@@UAE_NPAVComparisonOperator@@PAV1@@Z
    ?computed_goto@Program_Counter@@UAEXI@Z
    ?construct@Stimulus_Node@@SAPAV1@PBD@Z
    ?convertToNew@PinGeometry@@QAEXXZ
    ?copy@Boolean@@UAEPAVValue@@XZ
    ?copy@Float@@UAEPAVValue@@XZ
    ?copy@Integer@@UAEPAVValue@@XZ
    ?copy@Register@@UAEPAVValue@@XZ
    ?copy@String@@UAEPAVValue@@XZ
    ?copy@Value@@UAEPAV1@XZ
    ?create@Processor@@UAEXXZ
    ?createProgramMemoryAccess@Processor@@UAEPAVProgramMemoryAccess@@PAV1@@Z
    ?create_invalid_registers@Processor@@QAEXXZ
    ?create_pkg@Module@@UAEXI@Z
    ?cycles@@3VCycle_Counter@@A
    ?cycles_used@Processor@@QAE_KI@Z
    ?debug@AliasedInstruction@@UAEXXZ
    ?decode@ModuleTraceType@@UAEPAVTraceObject@@I@Z
    ?decode@instruction@@QAEXPAVProcessor@@I@Z
    ?deleteSymbol@SymbolTable@@QAEHABV?$basic_string@DU?$char_traits@D@std@@V?$allocator@D@2@@std@@@Z
    ?description@gpsimObject@@UAE?AV?$basic_string@DU?$char_traits@D@std@@V?$allocator@D@2@@std@@XZ
    ?destroyProgramMemoryAccess@Processor@@UAEXPAVProgramMemoryAccess@@@Z
    ?detach@stimulus@@UAEXPAVStimulus_Node@@@Z
    ?detach_stimulus@Stimulus_Node@@QAEXPAVstimulus@@@Z
    ?disableLogging@Trace@@QAEXXZ
    ?disable_logging@TraceLog@@QAEXXZ
    ?disassemble@Processor@@UAEXHH@Z
    ?dump1@Breakpoints@@QAE_NIH@Z
    ?dump@Breakpoints@@QAEXH@Z
    ?dump@ThreeStateEventLogger@@QAEXHH@Z
    ?dump@Trace@@QAEHHPAU_iobuf@@@Z
    ?dump_ASCII_art@BoolEventLogger@@QAEX_K0H@Z
    ?dump_ASCII_art@ThreeStateEventLogger@@QAEX_K0H@Z
    ?dump_last_instruction@Trace@@QAEXXZ
    ?dump_processor_list@CSimulationContext@@QAEXXZ
    ?dump_raw@ModuleTraceType@@UAEHPAVTrace@@IPADH@Z
    ?dump_raw@PCTraceType@@UAEHPAVTrace@@IPADH@Z
    ?dump_raw@Trace@@QAEXH@Z
    ?dump_raw@TraceType@@UAEHPAVTrace@@IPADH@Z
    ?dump_registers@Processor@@UAEXXZ
    ?dump_stimulus_list@@YAXXZ
    ?enableLogging@Trace@@QAEXPBD@Z
    ?enable_logging@TraceLog@@QAEXPBDH@Z
    ?enable_profiling@ProfileKeeper@@QAEXXZ
    ?entriesUsed@TraceType@@UAEHPAVTrace@@I@Z
    ?eval_Expression@Breakpoint_Instruction@@UAE_NXZ
    ?eval_Expression@TriggerObject@@UAE_NXZ
    ?event@BoolEventLogger@@QAEX_N@Z
    ?event@ThreeStateEventLogger@@QAEXD@Z
    ?execute@AliasedInstruction@@UAEXXZ
    ?find@CCommandManager@@QAEPAVICommandHandler@@PBD@Z
    ?find@SymbolTable@@QAEPAVgpsimObject@@V?$basic_string@DU?$char_traits@D@std@@V?$allocator@D@2@@std@@@Z
    ?findInteger@SymbolTable@@QAEPAVInteger@@V?$basic_string@DU?$char_traits@D@std@@V?$allocator@D@2@@std@@@Z
    ?findModule@SymbolTable@@QAEPAVModule@@V?$basic_string@DU?$char_traits@D@std@@V?$allocator@D@2@@std@@@Z
    ?findSymbol@Module@@QAEPAVgpsimObject@@ABV?$basic_string@DU?$char_traits@D@std@@V?$allocator@D@2@@std@@@Z
    ?findValue@SymbolTable@@QAEPAVValue@@V?$basic_string@DU?$char_traits@D@std@@V?$allocator@D@2@@std@@@Z
    ?find_address_from_line@ProgramMemoryAccess@@UAEHPAVFileContext@@H@Z
    ?find_closest_address_to_line@ProgramMemoryAccess@@UAEHHH@Z
    ?find_free@TriggerObject@@UAEHXZ
    ?find_instruction@ProgramMemoryAccess@@UAEPAVinstruction@@IW4INSTRUCTION_TYPES@2@@Z
    ?finish@ProgramMemoryAccess@@UAEXXZ
    ?forceDrivenState@IOPIN@@UAEXD@Z
    ?gUsingThreads@@YA_NXZ
    ?get@Boolean@@UAEXAAH@Z
    ?get@Boolean@@UAEXAAVPacket@@@Z
    ?get@Boolean@@UAEXAA_N@Z
    ?get@Boolean@@UAEXPADH@Z
    ?get@Float@@UAEXAAN@Z
    ?get@Float@@UAEXAAVPacket@@@Z
    ?get@Float@@UAEXAA_J@Z
    ?get@Float@@UAEXPADH@Z
    ?get@Integer@@UAEXAAN@Z
    ?get@Integer@@UAEXAAVPacket@@@Z
    ?get@Integer@@UAEXAA_J@Z
    ?get@Integer@@UAEXPADH@Z
    ?get@PortRegister@@UAEIXZ
    ?get@Register@@UAEIXZ
    ?get@Register@@UAEXAA_J@Z
    ?get@String@@UAEXAAVPacket@@@Z
    ?get@String@@UAEXPADH@Z
    ?get@Value@@UAEXAAH@Z
    ?get@Value@@UAEXAAN@Z
    ?get@Value@@UAEXAAVPacket@@@Z
    ?get@Value@@UAEXAA_J@Z
    ?get@Value@@UAEXAA_K@Z
    ?get@Value@@UAEXAA_N@Z
    ?get@Value@@UAEXPADH@Z
    ?getBitChar@IOPIN@@UAEDXZ
    ?getBitChar@IO_bi_directional@@UAEDXZ
    ?getBitChar@IO_bi_directional_pu@@UAEDXZ
    ?getBitChar@IO_open_collector@@UAEDXZ
    ?getDrivenState@IOPIN@@UAE_NXZ
    ?getDriving@PortRegister@@UAEIXZ
    ?getDrivingState@IOPIN@@UAE_NXZ
    ?getForcedDrivenState@IOPIN@@UAEDXZ
    ?getFromAddress@ProgramMemoryAccess@@QAEPAVinstruction@@I@Z
    ?getFromIndex@ProgramMemoryAccess@@QAEPAVinstruction@@I@Z
    ?getPin@PortModule@@QAEPAVIOPIN@@I@Z
    ?getPinGeometry@Package@@QAEPAUPinGeometry@@I@Z
    ?getReplaced@AliasedInstruction@@UAEPAVinstruction@@XZ
    ?getState@IOPIN@@UAE_NXZ
    ?getState@RegisterReadTraceObject@@UAEXPAVTraceFrame@@@Z
    ?getState@RegisterWriteTraceObject@@UAEXPAVTraceFrame@@@Z
    ?getState@TraceObject@@UAEXPAVTraceFrame@@@Z
    ?getThevenin@stimulus@@UAEXAAN00@Z
    ?getVal@String@@QAEPBDXZ
    ?get_OSCperiod@Processor@@UAENXZ
    ?get_PC@ProgramMemoryAccess@@UAEIXZ
    ?get_Vth@IOPIN@@UAENXZ
    ?get_Vth@IO_bi_directional@@UAENXZ
    ?get_Vth@IO_bi_directional_pu@@UAENXZ
    ?get_Vth@IO_open_collector@@UAENXZ
    ?get_Zth@IO_bi_directional@@UAENXZ
    ?get_Zth@IO_bi_directional_pu@@UAENXZ
    ?get_Zth@IO_open_collector@@UAENXZ
    ?get_active_cpu@@YAPAVProcessor@@XZ
    ?get_base_instruction@ProgramMemoryAccess@@QAEPAVinstruction@@I@Z
    ?get_bit@Register@@UAE_NI@Z
    ?get_bit_voltage@Register@@UAENI@Z
    ?get_bp@@YAAAVBreakpoints@@XZ
    ?get_cpu@Breakpoint_Instruction@@UAEPAVProcessor@@XZ
    ?get_cpu@MemoryAccess@@UAEPAVProcessor@@XZ
    ?get_cycles@@YAAAVCycle_Counter@@XZ
    ?get_dir_delim@@YAPBDPBD@Z
    ?get_errMsg@AnError@@QAE?AV?$basic_string@DU?$char_traits@D@std@@V?$allocator@D@2@@std@@XZ
    ?get_file_id@AliasedInstruction@@UAEHXZ
    ?get_file_id@ProgramMemoryAccess@@QAEHI@Z
    ?get_frequency@Processor@@UAENXZ
    ?get_hll_file_id@AliasedInstruction@@UAEHXZ
    ?get_hll_src_line@AliasedInstruction@@UAEHXZ
    ?get_index@BoolEventLogger@@QAEI_K@Z
    ?get_index@ThreeStateEventLogger@@QAEI_K@Z
    ?get_interface@@YAAAVgpsimInterface@@XZ
    ?get_lst_line@AliasedInstruction@@UAEHXZ
    ?get_nEvents@ThreeStateEventLogger@@QAEIII@Z
    ?get_nodeVoltage@Stimulus_Node@@QAENXZ
    ?get_opcode@AliasedInstruction@@UAEIXZ
    ?get_opcode@ProgramMemoryAccess@@QAEII@Z
    ?get_opcode_name@ProgramMemoryAccess@@QAEPADIPADI@Z
    ?get_pin@Module@@UAEPAVIOPIN@@I@Z
    ?get_pin@Package@@QAEPAVIOPIN@@I@Z
    ?get_pin_count@Module@@UAEHXZ
    ?get_pin_name@Module@@UAEAAV?$basic_string@DU?$char_traits@D@std@@V?$allocator@D@2@@std@@I@Z
    ?get_pin_state@Module@@UAEHI@Z
    ?get_program_memory_at_address@Processor@@UAEII@Z
    ?get_src_line@AliasedInstruction@@UAEHXZ
    ?get_src_line@ProgramMemoryAccess@@QAEHI@Z
    ?get_trace@@YAAAVTrace@@XZ
    ?get_update_rate@gpsimInterface@@QAE_KXZ
    ?get_value@AliasedInstruction@@UAEIXZ
    ?get_value@PortRegister@@UAEIXZ
    ?get_value@gpsimObject@@UAEIXZ
    ?gets@FileContext@@QAEPADPADI@Z
    ?gpsim_set_bulk_mode@@YAXH@Z
    ?grab@Token@gpsim@@QAEXXZ
    ?halt@Breakpoints@@QAEXXZ
    ?hasBreak@RegisterMemoryAccess@@QAE_NI@Z
    ?hasValid_opcode_at_address@ProgramMemoryAccess@@QAE_NI@Z
    ?hasValid_opcode_at_index@ProgramMemoryAccess@@QAE_NI@Z
    ?icd_connect@@YAHPBD@Z
    ?icd_detected@@YAHXZ
    ?icd_disconnect@@YAHXZ
    ?icd_has_debug_module@@YAHXZ
    ?icd_target@@YAPADXZ
    ?icd_vdd@@YAMXZ
    ?icd_version@@YAPADXZ
    ?icd_vpp@@YAMXZ
    ?init@ProgramMemoryAccess@@QAEXPAVProcessor@@@Z
    ?init_program_memory@Processor@@UAEXI@Z
    ?init_program_memory@Processor@@UAEXII@Z
    ?init_program_memory_at_index@Processor@@UAEXII@Z
    ?init_program_memory_at_index@Processor@@UAEXIPBEH@Z
    ?init_register_memory@Processor@@UAEXI@Z
    ?initialize@AliasedInstruction@@UAEX_N@Z
    ?insertRegister@RegisterMemoryAccess@@QAE_NIPAVRegister@@@Z
    ?instruction_size@AliasedInstruction@@UAEHXZ
    ?interrupt@Program_Counter@@UAEXI@Z
    ?invokeAction@TriggerObject@@UAEXXZ
    ?isBase@AliasedInstruction@@UAE_NXZ
    ?isModified@ProgramMemoryAccess@@QAE_NI@Z
    ?isValid@TraceType@@UAE_NPAVTrace@@I@Z
    ?isa@AliasedInstruction@@UAE?AW4INSTRUCTION_TYPES@instruction@@XZ
    ?list@Processor@@UAEXIIHH@Z
    ?list_id@FileContextList@@QAEXH@Z
    ?load_state@Processor@@UAEXPAU_iobuf@@@Z
    ?log@TraceRawLog@@QAEXXZ
    ?name@AliasedInstruction@@UAEPADPADH@Z
    ?name@gpsimObject@@UAEPADPADH@Z
    ?name@gpsimObject@@UBEAAV?$basic_string@DU?$char_traits@D@std@@V?$allocator@D@2@@std@@XZ
    ?newGUIname@IOPIN@@UAEXPBD@Z
    ?new_address@Program_Counter@@UAEXI@Z
    ?new_message@TriggerObject@@UAEXAAV?$basic_string@DU?$char_traits@D@std@@V?$allocator@D@2@@std@@@Z
    ?new_message@TriggerObject@@UAEXPBD@Z
    ?new_name@Register@@UAEXAAV?$basic_string@DU?$char_traits@D@std@@V?$allocator@D@2@@std@@@Z
    ?new_name@Register@@UAEXPBD@Z
    ?new_name@gpsimObject@@UAEXAAV?$basic_string@DU?$char_traits@D@std@@V?$allocator@D@2@@std@@@Z
    ?new_name@gpsimObject@@UAEXPBD@Z
    ?new_name@stimulus@@UAEXAAV?$basic_string@DU?$char_traits@D@std@@V?$allocator@D@2@@std@@_N@Z
    ?new_name@stimulus@@UAEXPBD_N@Z
    ?new_program@gpsimInterface@@QAEXPAVProcessor@@@Z
    ?open@FileContext@@QAEXPBD@Z
    ?passToChild@Token@gpsim@@QAEXXZ
    ?passToParent@Token@gpsim@@QAEXXZ
    ?preset@Cycle_Counter@@QAEX_K@Z
    ?print@Breakpoint_Instruction@@UAEXXZ
    ?print@TriggerObject@@UAEXXZ
    ?printExpression@TriggerObject@@UAEHPADH@Z
    ?printTraced@Breakpoint_Instruction@@UAEHPAVTrace@@IPADH@Z
    ?printTraced@TriggerObject@@UAEHPAVTrace@@IPADH@Z
    ?print_frame@TraceObject@@UAEXPAVTraceFrame@@PAU_iobuf@@@Z
    ?profile_keeper@@3VProfileKeeper@@A
    ?put@PortRegister@@UAEXI@Z
    ?putDrive@PortRegister@@UAEXI@Z
    ?putState@IOPIN@@UAEX_N@Z
    ?putState@PinModule@@UAEXD@Z
    ?putToAddress@ProgramMemoryAccess@@UAEXIPAVinstruction@@@Z
    ?putToIndex@ProgramMemoryAccess@@UAEXIPAVinstruction@@@Z
    ?put_opcode@ProgramMemoryAccess@@QAEXII@Z
    ?put_value@AliasedInstruction@@UAEXI@Z
    ?put_value@PortRegister@@UAEXI@Z
    ?put_value@Register@@UAEXI@Z
    ?readihex16@IntelHexProgramFileType@@QAEHPAVProcessor@@PAU_iobuf@@@Z
    ?readihexN@IntelHexProgramFileType@@AAEHHPAPAVRegister@@HPAU_iobuf@@H@Z
    ?read_src_files@Processor@@QAEXXZ
    ?reassign_break@Cycle_Counter@@QAE_N_K0PAVTriggerObject@@@Z
    ?refreshPinOnUpdate@PinModule@@QAEX_N@Z
    ?register_size@Register@@UBEIXZ
    ?removeRegister@RegisterMemoryAccess@@QAE_NIPAVRegister@@@Z
    ?removeSink@PinMonitor@@QAEXPAVSignalSink@@@Z
    ?removeSymbol@Module@@QAEHPAVgpsimObject@@@Z
    ?remove_interface@gpsimInterface@@QAEXI@Z
    ?remove_xref@AliasedInstruction@@UAEXPAX@Z
    ?remove_xref@Value@@UAEXPAX@Z
    ?reset@Module@@UAEXW4RESET_TYPE@@@Z
    ?reset@Program_Counter@@QAEXXZ
    ?reset@gpsimInterface@@QAEXW4RESET_TYPE@@@Z
    ?reset@sfr_register@@UAEXW4RESET_TYPE@@@Z
    ?rewind@FileContext@@QAEXXZ
    ?rts@ByteLogger@gpsim@@QAEX_K@Z
    ?run_script@Module@@QAEXAAV?$basic_string@DU?$char_traits@D@std@@V?$allocator@D@2@@std@@@Z
    ?run_to_address@Processor@@UAEXI@Z
    ?save_state@Processor@@UAEXPAU_iobuf@@@Z
    ?save_state@Processor@@UAEXXZ
    ?set@Boolean@@UAEXAAVPacket@@@Z
    ?set@Boolean@@UAEXPAVValue@@@Z
    ?set@Boolean@@UAEXPBDH@Z
    ?set@Boolean@@UAEX_N@Z
    ?set@Float@@UAEXAAVPacket@@@Z
    ?set@Float@@UAEXN@Z
    ?set@Float@@UAEXPAVValue@@@Z
    ?set@Float@@UAEXPBDH@Z
    ?set@Float@@UAEX_J@Z
    ?set@Integer@@UAEXAAVPacket@@@Z
    ?set@Integer@@UAEXH@Z
    ?set@Integer@@UAEXN@Z
    ?set@Integer@@UAEXPAVValue@@@Z
    ?set@Integer@@UAEXPBDH@Z
    ?set@Integer@@UAEX_J@Z
    ?set@Register@@UAEXPAVValue@@@Z
    ?set@String@@UAEXAAVPacket@@@Z
    ?set@String@@UAEXPAVValue@@@Z
    ?set@String@@UAEXPBDH@Z
    ?set@Value@@UAEXAAVPacket@@@Z
    ?set@Value@@UAEXH@Z
    ?set@Value@@UAEXN@Z
    ?set@Value@@UAEXPAV1@@Z
    ?set@Value@@UAEXPAVExpression@@@Z
    ?set@Value@@UAEXPBDH@Z
    ?set@Value@@UAEX_J@Z
    ?set@Value@@UAEX_N@Z
    ?setBreakOnReset@Processor@@UAEX_N@Z
    ?setControl@PinModule@@QAEXPAVSignalControl@@@Z
    ?setDefaultBitmask@Integer@@SAX_J@Z
    ?setDefaultControl@PinModule@@QAEXPAVSignalControl@@@Z
    ?setDefaultPullupControl@PinModule@@QAEXPAVSignalControl@@@Z
    ?setDefaultSource@PinModule@@QAEXPAVSignalControl@@@Z
    ?setDirection@PinModule@@UAEXXZ
    ?setDrivenState@IOPIN@@UAEX_N@Z
    ?setDrivenState@PinModule@@UAEXD@Z
    ?setDrivingState@IOPIN@@UAEXD@Z
    ?setDrivingState@IOPIN@@UAEX_N@Z
    ?setDrivingState@PinModule@@UAEXD@Z
    ?setEnableMask@PortRegister@@UAEXI@Z
    ?setGUImode@gpsimInterface@@QAEX_N@Z
    ?setMonitor@IOPIN@@UAEXPAVPinMonitor@@@Z
    ?setPinGeometry@Package@@QAEXIMMH_N@Z
    ?setSafeMode@Processor@@UAEX_N@Z
    ?setUnknownMode@Processor@@UAEX_N@Z
    ?setWarnMode@Processor@@UAEX_N@Z
    ?set_Expression@TriggerObject@@UAEXPAVExpression@@@Z
    ?set_Expression@TriggerObject@@UAEXPAVExpression@@@Z
    ?set_PC@ProgramMemoryAccess@@UAEXI@Z
    ?set_break@Breakpoint_Instruction@@UAE_NXZ
    ?set_break@Cycle_Counter@@QAE_N_KPAVTriggerObject@@I@Z
    ?set_break@Integer@@UAEHW4ObjectBreakTypes@gpsimObject@@W4ObjectActionTypes@3@PAVExpression@@@Z
    ?set_break@Register@@UAEHW4ObjectBreakTypes@gpsimObject@@W4ObjectActionTypes@3@PAVExpression@@@Z
    ?set_break@gpsimObject@@UAEHW4ObjectBreakTypes@1@W4ObjectActionTypes@1@PAVExpression@@@Z
    ?set_break_at_address@ProgramMemoryAccess@@UAEII@Z
    ?set_break_at_line@ProgramMemoryAccess@@UAEXII@Z
    ?set_break_delta@Cycle_Counter@@QAE_N_KPAVTriggerObject@@I@Z
    ?set_change_break@Breakpoints@@QAEHPAVProcessor@@I@Z
    ?set_cpu@Value@@UAEXPAVProcessor@@@Z
    ?set_cycle_break@Breakpoints@@QAEHPAVProcessor@@_KPAVTriggerObject@@@Z
    ?set_description@gpsimObject@@QAEXPBD@Z
    ?set_execution_break@Breakpoints@@QAEHPAVProcessor@@IPAVExpression@@@Z
    ?set_expression@Breakpoints@@QAE_NIPAVExpression@@@Z
    ?set_frequency@Processor@@QAEXN@Z
    ?set_hll_mode@ProgramMemoryAccess@@QAEXI@Z
    ?set_is_analog@IO_bi_directional_pu@@UAEX_N@Z
    ?set_message@Breakpoints@@QAEXIAAV?$basic_string@DU?$char_traits@D@std@@V?$allocator@D@2@@std@@@Z
    ?set_module@Value@@UAEXPAVModule@@@Z
    ?set_nodeVoltage@IOPIN@@UAEXN@Z
    ?set_nodeVoltage@IO_bi_directional@@UAEXN@Z
    ?set_nodeVoltage@PinModule@@UAEXN@Z
    ?set_nodeVoltage@Stimulus_Node@@QAEXN@Z
    ?set_notify_at_address@ProgramMemoryAccess@@UAEIIPAVTriggerObject@@@Z
    ?set_notify_read@Breakpoints@@QAEHPAVProcessor@@I@Z
    ?set_notify_read_value@Breakpoints@@QAEHPAVProcessor@@III@Z
    ?set_notify_write@Breakpoints@@QAEHPAVProcessor@@I@Z
    ?set_notify_write_value@Breakpoints@@QAEHPAVProcessor@@III@Z
    ?set_out_of_range_pm@Processor@@UAEXII@Z
    ?set_profile_start_at_address@ProgramMemoryAccess@@UAEIIPAVTriggerObject@@@Z
    ?set_profile_stop_at_address@ProgramMemoryAccess@@UAEIIPAVTriggerObject@@@Z
    ?set_read_break@Breakpoints@@QAEHPAVProcessor@@I@Z
    ?set_read_trace@Register@@UAEXAAVRegisterValue@@@Z
    ?set_read_value_break@Breakpoints@@QAEHPAVProcessor@@III@Z
    ?set_read_value_break@Breakpoints@@QAEHPAVProcessor@@IIII@Z
    ?set_stk_overflow_break@Breakpoints@@QAEHPAVProcessor@@@Z
    ?set_stk_underflow_break@Breakpoints@@QAEHPAVProcessor@@@Z
    ?set_update_rate@gpsimInterface@@QAEX_K@Z
    ?set_wdt_break@Breakpoints@@QAEHPAVProcessor@@@Z
    ?set_write_break@Breakpoints@@QAEHPAVProcessor@@I@Z
    ?set_write_trace@Register@@UAEXAAVRegisterValue@@@Z
    ?set_write_value_break@Breakpoints@@QAEHPAVProcessor@@III@Z
    ?set_write_value_break@Breakpoints@@QAEHPAVProcessor@@IIII@Z
    ?setbit@Register@@UAEXI_N@Z
    ?show@BinaryOperator@@QAE?AV?$basic_string@DU?$char_traits@D@std@@V?$allocator@D@2@@std@@XZ
    ?show@IOPIN@@UAEXXZ
    ?show@gpsimObject@@QAE?AV?$basic_string@DU?$char_traits@D@std@@V?$allocator@D@2@@std@@XZ
    ?showInfo@Trace@@QAEXXZ
    ?showType@BinaryOperator@@QAE?AV?$basic_string@DU?$char_traits@D@std@@V?$allocator@D@2@@std@@XZ
    ?showType@gpsimObject@@QAE?AV?$basic_string@DU?$char_traits@D@std@@V?$allocator@D@2@@std@@XZ
    ?simulation_cleanup@@YAXXZ
    ?simulation_has_stopped@gpsimInterface@@QAEXXZ
    ?simulation_start_cycle@@3_KA
    ?start@ByteLogger@gpsim@@QAEX_K@Z
	?start_simulation@gpsimInterface@@QAEXN@Z
    ?status@TraceLog@@QAEXXZ
    ?step_over@Processor@@UAEX_N@Z
    ?step_simulation@gpsimInterface@@QAEXH@Z
    ?stimuli_attach@@YAXPAVgpsimObject@@PAV?$list@PAVgpsimObject@@V?$allocator@PAVgpsimObject@@@std@@@std@@@Z
    ?stop@ByteLogger@gpsim@@QAEX_K@Z
    ?stop@ProgramMemoryAccess@@UAEXXZ
    ?terminate@PacketBuffer@@QAEXXZ
    ?test_bits@@YAXXZ
    ?toBitStr@Boolean@@UAEPADPADH@Z
    ?toBitStr@Integer@@UAEPADPADH@Z
    ?toBitStr@Register@@UAEPADPADH@Z
    ?toBitStr@RegisterValue@@QBEPADPADHIPBD111@Z
    ?toBitStr@gpsimObject@@UAEPADPADH@Z
    ?toString@AnError@@UAE?AV?$basic_string@DU?$char_traits@D@std@@V?$allocator@D@2@@std@@XZ
    ?toString@Boolean@@SA?AV?$basic_string@DU?$char_traits@D@std@@V?$allocator@D@2@@std@@_N@Z
    ?toString@Boolean@@UAE?AV?$basic_string@DU?$char_traits@D@std@@V?$allocator@D@2@@std@@XZ
    ?toString@Boolean@@UAEPADPADH@Z
    ?toString@Float@@UAE?AV?$basic_string@DU?$char_traits@D@std@@V?$allocator@D@2@@std@@XZ
    ?toString@Float@@UAEPADPADH@Z
    ?toString@IIndexedCollection@@MAE?AV?$basic_string@DU?$char_traits@D@std@@V?$allocator@D@2@@std@@HAAV?$vector@V?$basic_string@DU?$char_traits@D@std@@V?$allocator@D@2@@std@@V?$allocator@V?$basic_string@DU?$char_traits@D@std@@V?$allocator@D@2@@std@@@2@@3@0@Z
    ?toString@IIndexedCollection@@UAE?AV?$basic_string@DU?$char_traits@D@std@@V?$allocator@D@2@@std@@PAV?$list@PAVExpression@@V?$allocator@PAVExpression@@@std@@@3@@Z
    ?toString@IIndexedCollection@@UAE?AV?$basic_string@DU?$char_traits@D@std@@V?$allocator@D@2@@std@@XZ
    ?toString@IIndexedCollection@@UAEPADPADH@Z
    ?toString@IndexedSymbol@@UAE?AV?$basic_string@DU?$char_traits@D@std@@V?$allocator@D@2@@std@@XZ
    ?toString@Integer@@QAE?AV?$basic_string@DU?$char_traits@D@std@@V?$allocator@D@2@@std@@PBD@Z
    ?toString@Integer@@UAE?AV?$basic_string@DU?$char_traits@D@std@@V?$allocator@D@2@@std@@XZ
    ?toString@Integer@@UAEPADPADH@Z
    ?toString@Register@@UAEPADPADH@Z
    ?toString@RegisterValue@@QBEPADPADHH@Z
    ?toString@String@@UAE?AV?$basic_string@DU?$char_traits@D@std@@V?$allocator@D@2@@std@@XZ
    ?toString@String@@UAEPADPADH@Z
    ?toString@gpsimObject@@UAE?AV?$basic_string@DU?$char_traits@D@std@@V?$allocator@D@2@@std@@XZ
    ?toString@gpsimObject@@UAEPADPADH@Z
    ?toString@stimulus@@UAE?AV?$basic_string@DU?$char_traits@D@std@@V?$allocator@D@2@@std@@XZ
    ?toggle@IOPIN@@UAEXXZ
    ?toggle_break_at_address@ProgramMemoryAccess@@UAEXI@Z
    ?toggle_break_at_line@ProgramMemoryAccess@@UAEXII@Z
    ?toupper@@YAAAV?$basic_string@DU?$char_traits@D@std@@V?$allocator@D@2@@std@@AAV12@@Z
    ?trace_dump1@Processor@@UAEHHPADH@Z
    ?typeCheck@AbstractRange@@SAPAV1@PAVValue@@V?$basic_string@DU?$char_traits@D@std@@V?$allocator@D@2@@std@@@Z
    ?typeCheck@Boolean@@SAPAV1@PAVValue@@V?$basic_string@DU?$char_traits@D@std@@V?$allocator@D@2@@std@@@Z
    ?typeCheck@Float@@SAPAV1@PAVValue@@V?$basic_string@DU?$char_traits@D@std@@V?$allocator@D@2@@std@@@Z
    ?typeCheck@Integer@@SAPAV1@PAVValue@@V?$basic_string@DU?$char_traits@D@std@@V?$allocator@D@2@@std@@@Z
    ?update@AliasedInstruction@@UAEXXZ
    ?update@Stimulus_Node@@QAEXXZ
    ?update@Value@@UAEXXZ
    ?updatePin@PortModule@@UAEXI@Z
    ?updatePins@PortModule@@UAEXI@Z
    ?updatePort@PortModule@@UAEXXZ
    ?updateUI@PinModule@@UAEXXZ
    ?updateUI@PortRegister@@UAEXXZ
    ?update_direction@IO_bi_directional@@UAEXI_N@Z
    ?update_line_number@AliasedInstruction@@UAEXHHHHH@Z
    ?update_line_number@instruction@@UAEXHHHHH@Z
    ?update_pullup@IO_bi_directional_pu@@UAEXD_N@Z
    ?update_state@TraceFrame@@UAEXXZ
    ?verbose@@3VGlobalVerbosityAccessor@@A
    ?waitForChild@Token@gpsim@@QAEXXZ
    ?writeihexN@IntelHexProgramFileType@@AAEXHPAPAVRegister@@HPAU_iobuf@@H@Z
    GetUserInterface
    free_error_message
    free_library
    get_library_export
    load_library
