EXPORTS
    ??0Attribute@@QAE@XZ
    ??0IOPIN@@QAE@PAVIOPORT@@IPADPAPAVRegister@@@Z
    ??0IOPIN@@QAE@XZ
    ??0IOPORT@@QAE@I@Z
    ??0IO_bi_directional@@QAE@PAVIOPORT@@IPADPAPAVRegister@@@Z
    ??0IO_input@@QAE@PAVIOPORT@@IPADPAPAVRegister@@@Z
    ??0Interface@@QAE@PAX@Z
    ??0Module@@QAE@XZ
    ??0stimulus@@QAE@PAD@Z
    ??1IOPIN@@QAE@XZ
    ??1IOPORT@@QAE@XZ
    ??1Module@@UAE@XZ
    ??1XrefObject@@QAE@XZ
    ?add_attribute@Module@@QAEXPAVAttribute@@@Z
    ?add_interface@gpsimInterface@@QAEIPAVInterface@@@Z
    ?add_stimulus@Symbol_Table@@QAEXPAVstimulus@@@Z
    ?add_xref@gpsimValue@@UAEXPAX@Z
    ?assign_pin@Module@@UAEXIPAVIOPIN@@@Z
    ?attach@IOPIN@@UAEXPAVStimulus_Node@@@Z
    ?callback@BreakpointObject@@UAEXXZ
    ?callback@source_stimulus@@UAEXXZ
    ?callback_print@BreakpointObject@@UAEXXZ
    ?callback_print@source_stimulus@@UAEXXZ
    ?change_direction@IO_bi_directional@@UAEXI@Z
    ?change_pin_direction@IOPORT@@UAEXI_N@Z
    ?clear@BreakpointObject@@UAEXXZ
    ?create_pkg@Module@@UAEXI@Z
    ?dump_attributes@Module@@UAEXH@Z
    ?find_free@BreakpointObject@@UAEHXZ
    ?get@IOPORT@@UAEIXZ
    ?get_active_cpu@@YAPAVProcessor@@XZ
    ?get_attribute@Module@@UAEPAVAttribute@@PAD@Z
    ?get_bit@IOPORT@@UAEHI@Z
    ?get_bit_voltage@IOPORT@@UAEHI@Z
    ?get_cycles@@YAAAVCycle_Counter@@XZ
    ?get_interface@@YAAAVgpsimInterface@@XZ
    ?get_iop@IOPIN@@UAEPAVRegister@@XZ
    ?get_pin@Module@@UAEPAVIOPIN@@I@Z
    ?get_pin_count@Module@@UAEHXZ
    ?get_pin_name@Module@@UAEAAV?$basic_string@DU?$char_traits@D@std@@V?$allocator@D@2@@std@@I@Z
    ?get_pin_state@Module@@UAEHI@Z
    ?get_state@IOPIN@@UAEHXZ
    ?get_symbol_table@@YAAAVSymbol_Table@@XZ
    ?get_trace@@YAAAVTrace@@XZ
    ?get_voltage@IO_bi_directional@@UAEH_K@Z
    ?get_voltage@IO_input@@UAEH_K@Z
    ?name@gpsimValue@@UAEPADPADH@Z
    ?new_name@Attribute@@UAEXPAD@Z
    ?new_name@gpsimValue@@UAEXAAV?$basic_string@DU?$char_traits@D@std@@V?$allocator@D@2@@std@@@Z
    ?new_name@gpsimValue@@UAEXPAD@Z
    ?new_name@Module@@UAEXAAV?$basic_string@DU?$char_traits@D@std@@V?$allocator@D@2@@std@@@Z
    ?new_name@Module@@UAEXPAD@Z
    ?print@BreakpointObject@@UAEXXZ
    ?put@IOPORT@@UAEXI@Z
    ?put_node_state@IO_input@@UAEXH@Z
    ?put_state@IO_bi_directional@@UAEXH@Z
    ?put_state@IO_input@@UAEXH@Z
    ?put_state_value@IOPIN@@UAEXH@Z
    ?put_state_value@stimulus@@UAEXH@Z
    ?put_value@IOPORT@@UAEXI@Z
    ?remove_xref@gpsimValue@@UAEXPAX@Z
    ?sGet@FloatAttribute@@UAEPADPADH@Z
    ?set@FloatAttribute@@UAEXH@Z
    ?set@FloatAttribute@@UAEXN@Z
    ?set@FloatAttribute@@UAEXPAD@Z
    ?set@FloatAttribute@@UAEXPADH@Z
    ?set_attribute@Module@@UAEXPAD0@Z
    ?set_attribute@Module@@UAEXPAD0H@Z
    ?set_attribute@Module@@UAEXPADN@Z
    ?set_break@Cycle_Counter@@QAE_N_KPAVBreakpointObject@@I@Z
    ?set_break_delta@Cycle_Counter@@QAE_N_KPAVBreakpointObject@@I@Z
    ?setbit@IOPORT@@UAEXI_N@Z
    ?setbit_value@IOPORT@@UAEXI_N@Z
    ?toggle@IO_input@@UAEXXZ
    ?update@gpsimValue@@UAEXXZ
    ?update@Stimulus_Node@@QAEHI@Z
    ?update_direction@IO_bi_directional@@UAEXI@Z
    ?update_stimuli@IOPORT@@UAEHXZ
